target datalayout = "e-m:e-p270:32:32-p271:32:32-p272:64:64-i64:64-i128:128-f80:128-n8:16:32:64-S128"
target triple = "x86_64-pc-linux-gnu"

%struct.UConverterSharedData = type { i32, i32, ptr, ptr, i8, i8, ptr, i32, %struct.UConverterMBCSTable }
%struct.UConverterMBCSTable = type { i8, i8, i8, i32, ptr, ptr, ptr, ptr, ptr, ptr, [64 x i16], ptr, ptr, i32, i8, i8, i8, i16, i32, ptr, ptr, ptr, ptr }

; Function Attrs: mustprogress uwtable
define i32 @ucnv_MBCSFromUChar32_77(ptr noundef %0, i32 noundef %1, ptr noundef %2, i8 noundef signext %3) #0 {
  %5 = alloca i32, align 4
  %6 = alloca ptr, align 8
  %7 = alloca i32, align 4
  %8 = alloca ptr, align 8
  %9 = alloca i8, align 1
  %10 = alloca ptr, align 8
  %11 = alloca ptr, align 8
  %12 = alloca i32, align 4
  %13 = alloca i32, align 4
  %14 = alloca i32, align 4
  %15 = alloca i32, align 4
  store ptr %0, ptr %6, align 8, !tbaa !3
  store i32 %1, ptr %7, align 4, !tbaa !28
  store ptr %2, ptr %8, align 8, !tbaa !41
  store i8 %3, ptr %9, align 1, !tbaa !40
  call void @llvm.lifetime.start.p0(i64 8, ptr %10) #10
  call void @llvm.lifetime.start.p0(i64 8, ptr %11) #10
  call void @llvm.lifetime.start.p0(i64 4, ptr %12) #10
  call void @llvm.lifetime.start.p0(i64 4, ptr %13) #10
  call void @llvm.lifetime.start.p0(i64 4, ptr %14) #10
  %16 = load i32, ptr %7, align 4, !tbaa !28
  %17 = icmp sle i32 %16, 65535
  br i1 %17, label %26, label %18

18:                                               ; preds = %4
  %19 = load ptr, ptr %6, align 8, !tbaa !3
  %20 = getelementptr inbounds nuw %struct.UConverterSharedData, ptr %19, i32 0, i32 8
  %21 = getelementptr inbounds nuw %struct.UConverterMBCSTable, ptr %20, i32 0, i32 15
  %22 = load i8, ptr %21, align 1, !tbaa !66
  %23 = zext i8 %22 to i32
  %24 = and i32 %23, 1
  %25 = icmp ne i32 %24, 0
  br i1 %25, label %26, label %149

26:                                               ; preds = %18, %4
  %27 = load ptr, ptr %6, align 8, !tbaa !3
  %28 = getelementptr inbounds nuw %struct.UConverterSharedData, ptr %27, i32 0, i32 8
  %29 = getelementptr inbounds nuw %struct.UConverterMBCSTable, ptr %28, i32 0, i32 8
  %30 = load ptr, ptr %29, align 8, !tbaa !122
  store ptr %30, ptr %11, align 8, !tbaa !24
  %31 = load ptr, ptr %6, align 8, !tbaa !3
  %32 = getelementptr inbounds nuw %struct.UConverterSharedData, ptr %31, i32 0, i32 8
  %33 = getelementptr inbounds nuw %struct.UConverterMBCSTable, ptr %32, i32 0, i32 14
  %34 = load i8, ptr %33, align 4, !tbaa !52
  %35 = zext i8 %34 to i32
  %36 = icmp eq i32 %35, 0
  br i1 %36, label %37, label %78

37:                                               ; preds = %26
  %38 = load ptr, ptr %6, align 8, !tbaa !3
  %39 = getelementptr inbounds nuw %struct.UConverterSharedData, ptr %38, i32 0, i32 8
  %40 = getelementptr inbounds nuw %struct.UConverterMBCSTable, ptr %39, i32 0, i32 11
  %41 = load ptr, ptr %40, align 8, !tbaa !125
  %42 = load ptr, ptr %11, align 8, !tbaa !24
  %43 = load ptr, ptr %11, align 8, !tbaa !24
  %44 = load i32, ptr %7, align 4, !tbaa !28
  %45 = ashr i32 %44, 10
  %46 = sext i32 %45 to i64
  %47 = getelementptr inbounds i16, ptr %43, i64 %46
  %48 = load i16, ptr %47, align 2, !tbaa !26
  %49 = zext i16 %48 to i32
  %50 = load i32, ptr %7, align 4, !tbaa !28
  %51 = ashr i32 %50, 4
  %52 = and i32 %51, 63
  %53 = add nsw i32 %49, %52
  %54 = sext i32 %53 to i64
  %55 = getelementptr inbounds i16, ptr %42, i64 %54
  %56 = load i16, ptr %55, align 2, !tbaa !26
  %57 = zext i16 %56 to i32
  %58 = load i32, ptr %7, align 4, !tbaa !28
  %59 = and i32 %58, 15
  %60 = add nsw i32 %57, %59
  %61 = sext i32 %60 to i64
  %62 = getelementptr inbounds i16, ptr %41, i64 %61
  %63 = load i16, ptr %62, align 2, !tbaa !26
  %64 = zext i16 %63 to i32
  store i32 %64, ptr %13, align 4, !tbaa !28
  %65 = load i8, ptr %9, align 1, !tbaa !40
  %66 = icmp ne i8 %65, 0
  br i1 %66, label %67, label %70

67:                                               ; preds = %37
  %68 = load i32, ptr %13, align 4, !tbaa !28
  %69 = icmp uge i32 %68, 2048
  br i1 %69, label %73, label %77

70:                                               ; preds = %37
  %71 = load i32, ptr %13, align 4, !tbaa !28
  %72 = icmp uge i32 %71, 3072
  br i1 %72, label %73, label %77

73:                                               ; preds = %70, %67
  %74 = load i32, ptr %13, align 4, !tbaa !28
  %75 = and i32 %74, 255
  %76 = load ptr, ptr %8, align 8, !tbaa !41
  store i32 %75, ptr %76, align 4, !tbaa !28
  store i32 1, ptr %5, align 4
  store i32 1, ptr %15, align 4
  br label %172

77:                                               ; preds = %70, %67
  br label %148

78:                                               ; preds = %26
  %79 = load ptr, ptr %11, align 8, !tbaa !24
  %80 = load ptr, ptr %11, align 8, !tbaa !24
  %81 = load i32, ptr %7, align 4, !tbaa !28
  %82 = ashr i32 %81, 10
  %83 = sext i32 %82 to i64
  %84 = getelementptr inbounds i16, ptr %80, i64 %83
  %85 = load i16, ptr %84, align 2, !tbaa !26
  %86 = zext i16 %85 to i32
  %87 = load i32, ptr %7, align 4, !tbaa !28
  %88 = ashr i32 %87, 4
  %89 = and i32 %88, 63
  %90 = add nsw i32 %86, %89
  %91 = sext i32 %90 to i64
  %92 = getelementptr inbounds i32, ptr %79, i64 %91
  %93 = load i32, ptr %92, align 4, !tbaa !28
  store i32 %93, ptr %12, align 4, !tbaa !28
  %94 = load ptr, ptr %6, align 8, !tbaa !3
  %95 = getelementptr inbounds nuw %struct.UConverterSharedData, ptr %94, i32 0, i32 8
  %96 = getelementptr inbounds nuw %struct.UConverterMBCSTable, ptr %95, i32 0, i32 14
  %97 = load i8, ptr %96, align 4, !tbaa !52
  %98 = zext i8 %97 to i32
  switch i32 %98, label %120 [
    i32 1, label %99
  ]

99:                                               ; preds = %78
  %100 = load ptr, ptr %6, align 8, !tbaa !3
  %101 = getelementptr inbounds nuw %struct.UConverterSharedData, ptr %100, i32 0, i32 8
  %102 = getelementptr inbounds nuw %struct.UConverterMBCSTable, ptr %101, i32 0, i32 11
  %103 = load ptr, ptr %102, align 8, !tbaa !125
  %104 = load i32, ptr %12, align 4, !tbaa !28
  %105 = trunc i32 %104 to i16
  %106 = zext i16 %105 to i32
  %107 = mul i32 16, %106
  %108 = load i32, ptr %7, align 4, !tbaa !28
  %109 = and i32 %108, 15
  %110 = add i32 %107, %109
  %111 = zext i32 %110 to i64
  %112 = getelementptr inbounds nuw i16, ptr %103, i64 %111
  %113 = load i16, ptr %112, align 2, !tbaa !26
  %114 = zext i16 %113 to i32
  store i32 %114, ptr %13, align 4, !tbaa !28
  %115 = load i32, ptr %13, align 4, !tbaa !28
  %116 = icmp ule i32 %115, 255
  br i1 %116, label %117, label %118

117:                                              ; preds = %99
  store i32 1, ptr %14, align 4, !tbaa !28
  br label %119

118:                                              ; preds = %99
  store i32 2, ptr %14, align 4, !tbaa !28
  br label %119

119:                                              ; preds = %118, %117
  br label %121

120:                                              ; preds = %78
  store i32 -1, ptr %5, align 4
  store i32 1, ptr %15, align 4
  br label %172

121:                                              ; preds = %119
  %122 = load i32, ptr %12, align 4, !tbaa !28
  %123 = load i32, ptr %7, align 4, !tbaa !28
  %124 = and i32 %123, 15
  %125 = add nsw i32 16, %124
  %126 = shl i32 1, %125
  %127 = and i32 %122, %126
  %128 = icmp ne i32 %127, 0
  br i1 %128, label %143, label %129

129:                                              ; preds = %121
  %130 = load i8, ptr %9, align 1, !tbaa !40
  %131 = icmp ne i8 %130, 0
  br i1 %131, label %140, label %132

132:                                              ; preds = %129
  %133 = load i32, ptr %7, align 4, !tbaa !28
  %134 = sub nsw i32 %133, 57344
  %135 = icmp ult i32 %134, 6400
  br i1 %135, label %140, label %136

136:                                              ; preds = %132
  %137 = load i32, ptr %7, align 4, !tbaa !28
  %138 = sub nsw i32 %137, 983040
  %139 = icmp ult i32 %138, 131072
  br i1 %139, label %140, label %147

140:                                              ; preds = %136, %132, %129
  %141 = load i32, ptr %13, align 4, !tbaa !28
  %142 = icmp ne i32 %141, 0
  br i1 %142, label %143, label %147

143:                                              ; preds = %140, %121
  %144 = load i32, ptr %13, align 4, !tbaa !28
  %145 = load ptr, ptr %8, align 8, !tbaa !41
  store i32 %144, ptr %145, align 4, !tbaa !28
  %146 = load i32, ptr %14, align 4, !tbaa !28
  store i32 %146, ptr %5, align 4
  store i32 1, ptr %15, align 4
  br label %172

147:                                              ; preds = %140, %136
  br label %148

148:                                              ; preds = %147, %77
  br label %149

149:                                              ; preds = %148, %18
  %150 = load ptr, ptr %6, align 8, !tbaa !3
  %151 = getelementptr inbounds nuw %struct.UConverterSharedData, ptr %150, i32 0, i32 8
  %152 = getelementptr inbounds nuw %struct.UConverterMBCSTable, ptr %151, i32 0, i32 22
  %153 = load ptr, ptr %152, align 8, !tbaa !109
  store ptr %153, ptr %10, align 8, !tbaa !41
  %154 = load ptr, ptr %10, align 8, !tbaa !41
  %155 = icmp ne ptr %154, null
  br i1 %155, label %156, label %171

156:                                              ; preds = %149
  %157 = load ptr, ptr %10, align 8, !tbaa !41
  %158 = load i32, ptr %7, align 4, !tbaa !28
  %159 = load ptr, ptr %8, align 8, !tbaa !41
  %160 = load i8, ptr %9, align 1, !tbaa !40
  %161 = call i32 @ucnv_extSimpleMatchFromU_77(ptr noundef %157, i32 noundef %158, ptr noundef %159, i8 noundef signext %160)
  store i32 %161, ptr %14, align 4, !tbaa !28
  %162 = load i32, ptr %14, align 4, !tbaa !28
  %163 = icmp sge i32 %162, 0
  br i1 %163, label %164, label %166

164:                                              ; preds = %156
  %165 = load i32, ptr %14, align 4, !tbaa !28
  br label %169

166:                                              ; preds = %156
  %167 = load i32, ptr %14, align 4, !tbaa !28
  %168 = sub nsw i32 0, %167
  br label %169

169:                                              ; preds = %166, %164
  %170 = phi i32 [ %165, %164 ], [ %168, %166 ]
  store i32 %170, ptr %5, align 4
  store i32 1, ptr %15, align 4
  br label %172

171:                                              ; preds = %149
  store i32 0, ptr %5, align 4
  store i32 1, ptr %15, align 4
  br label %172

172:                                              ; preds = %171, %169, %143, %120, %73
  call void @llvm.lifetime.end.p0(i64 4, ptr %14) #10
  call void @llvm.lifetime.end.p0(i64 4, ptr %13) #10
  call void @llvm.lifetime.end.p0(i64 4, ptr %12) #10
  call void @llvm.lifetime.end.p0(i64 8, ptr %11) #10
  call void @llvm.lifetime.end.p0(i64 8, ptr %10) #10
  %173 = load i32, ptr %5, align 4
  ret i32 %173
}