; Function Attrs: mustprogress uwtable
define range(i32 -1, -2147483648) i32 @ucnv_MBCSFromUChar32_77(ptr noundef readonly captures(none) %0, i32 noundef %1, ptr noundef %2, i8 noundef signext %3) local_unnamed_addr #0 {
  %5 = icmp slt i32 %1, 65536
  br i1 %5, label %10, label %6

6:                                                ; preds = %4
  %7 = getelementptr inbounds nuw i8, ptr %0, i64 253
  %8 = load i8, ptr %7, align 1, !tbaa !52
  %9 = and i8 %8, 1
  %.not = icmp eq i8 %9, 0
  br i1 %.not, label %76, label %10

10:                                               ; preds = %6, %4
  %11 = getelementptr inbounds nuw i8, ptr %0, i64 88
  %12 = load ptr, ptr %11, align 8, !tbaa !99
  %13 = getelementptr inbounds nuw i8, ptr %0, i64 252
  %14 = load i8, ptr %13, align 4, !tbaa !39
  switch i8 %14, label %82 [
    i8 0, label %15
    i8 1, label %42
  ]

15:                                               ; preds = %10
  %16 = getelementptr inbounds nuw i8, ptr %0, i64 232
  %17 = load ptr, ptr %16, align 8, !tbaa !116
  %18 = ashr i32 %1, 10
  %19 = sext i32 %18 to i64
  %20 = getelementptr inbounds i16, ptr %12, i64 %19
  %21 = load i16, ptr %20, align 2, !tbaa !17
  %22 = zext i16 %21 to i32
  %23 = lshr i32 %1, 4
  %24 = and i32 %23, 63
  %25 = add nuw nsw i32 %24, %22
  %26 = zext nneg i32 %25 to i64
  %27 = getelementptr inbounds nuw i16, ptr %12, i64 %26
  %28 = load i16, ptr %27, align 2, !tbaa !17
  %29 = zext i16 %28 to i32
  %30 = and i32 %1, 15
  %31 = add nuw nsw i32 %30, %29
  %32 = zext nneg i32 %31 to i64
  %33 = getelementptr inbounds nuw i16, ptr %17, i64 %32
  %34 = load i16, ptr %33, align 2, !tbaa !17
  %.not49 = icmp eq i8 %3, 0
  br i1 %.not49, label %37, label %35

35:                                               ; preds = %15
  %36 = icmp ugt i16 %34, 2047
  br i1 %36, label %39, label %76

37:                                               ; preds = %15
  %38 = icmp ugt i16 %34, 3071
  br i1 %38, label %39, label %76

39:                                               ; preds = %37, %35
  %40 = and i16 %34, 255
  %41 = zext nneg i16 %40 to i32
  store i32 %41, ptr %2, align 4, !tbaa !27
  br label %82

42:                                               ; preds = %10
  %43 = lshr i32 %1, 4
  %44 = and i32 %43, 63
  %45 = ashr i32 %1, 10
  %46 = sext i32 %45 to i64
  %47 = getelementptr inbounds i16, ptr %12, i64 %46
  %48 = load i16, ptr %47, align 2, !tbaa !17
  %49 = zext i16 %48 to i32
  %50 = add nuw nsw i32 %44, %49
  %51 = zext nneg i32 %50 to i64
  %52 = getelementptr inbounds nuw i32, ptr %12, i64 %51
  %53 = load i32, ptr %52, align 4, !tbaa !27
  %54 = getelementptr inbounds nuw i8, ptr %0, i64 232
  %55 = load ptr, ptr %54, align 8, !tbaa !116
  %56 = shl i32 %53, 4
  %57 = and i32 %56, 1048560
  %58 = and i32 %1, 15
  %59 = or disjoint i32 %57, %58
  %60 = zext nneg i32 %59 to i64
  %61 = getelementptr inbounds nuw i16, ptr %55, i64 %60
  %62 = load i16, ptr %61, align 2, !tbaa !17
  %63 = zext i16 %62 to i32
  %64 = icmp ult i16 %62, 256
  %. = select i1 %64, i32 1, i32 2
  %65 = shl nuw i32 65536, %58
  %66 = and i32 %53, %65
  %.not47 = icmp eq i32 %66, 0
  br i1 %.not47, label %67, label %75

67:                                               ; preds = %42
  %.not48 = icmp ne i8 %3, 0
  %68 = add nsw i32 %1, -57344
  %69 = icmp ult i32 %68, 6400
  %or.cond52 = select i1 %.not48, i1 true, i1 %69
  br i1 %or.cond52, label %74, label %70

70:                                               ; preds = %67
  %71 = add nsw i32 %1, -983040
  %72 = icmp ult i32 %71, 131072
  %73 = icmp ne i16 %62, 0
  %or.cond = and i1 %72, %73
  br i1 %or.cond, label %75, label %76

74:                                               ; preds = %67
  %.old1.not = icmp eq i16 %62, 0
  br i1 %.old1.not, label %76, label %75

75:                                               ; preds = %70, %74, %42
  store i32 %63, ptr %2, align 4, !tbaa !27
  br label %82

76:                                               ; preds = %37, %35, %74, %70, %6
  %77 = getelementptr inbounds nuw i8, ptr %0, i64 288
  %78 = load ptr, ptr %77, align 8, !tbaa !67
  %.not50 = icmp eq ptr %78, null
  br i1 %.not50, label %82, label %79

79:                                               ; preds = %76
  %80 = tail call i32 @ucnv_extSimpleMatchFromU_77(ptr noundef nonnull %78, i32 noundef %1, ptr noundef %2, i8 noundef signext %3)
  %81 = tail call i32 @llvm.abs.i32(i32 %80, i1 true)
  br label %82

82:                                               ; preds = %10, %76, %79, %75, %39
  %.044 = phi i32 [ 1, %39 ], [ %81, %79 ], [ %., %75 ], [ 0, %76 ], [ -1, %10 ]
  ret i32 %.044
}